; ModuleID = '24/485.c'
source_filename = "24/485.c"
target datalayout = "e-m:e-p270:32:32-p271:32:32-p272:64:64-i64:64-f80:128-n8:16:32:64-S128"
target triple = "x86_64-pc-linux-gnu"

@.str = private unnamed_addr constant [7 x i8] c"%s\0A%s\0A\00", align 1

; Function Attrs: noinline nounwind uwtable
define dso_local void @main() #0 {
  %1 = alloca [1000 x i8], align 16
  %2 = alloca [100 x [100 x i8]], align 16
  %3 = alloca [100 x i8], align 16
  %4 = alloca [100 x i8], align 16
  %5 = alloca i32, align 4
  %6 = alloca i32, align 4
  %7 = alloca i32, align 4
  %8 = bitcast [100 x [100 x i8]]* %2 to i8*
  call void @llvm.memset.p0i8.i64(i8* align 16 %8, i8 0, i64 10000, i1 false)
  %9 = bitcast [100 x i8]* %3 to i8*
  call void @llvm.memset.p0i8.i64(i8* align 16 %9, i8 0, i64 100, i1 false)
  %10 = bitcast [100 x i8]* %4 to i8*
  call void @llvm.memset.p0i8.i64(i8* align 16 %10, i8 0, i64 100, i1 false)
  store i32 0, i32* %6, align 4
  store i32 0, i32* %7, align 4
  %11 = getelementptr inbounds [1000 x i8], [1000 x i8]* %1, i64 0, i64 0
  %12 = call i32 (i8*, ...) bitcast (i32 (...)* @gets to i32 (i8*, ...)*)(i8* %11)
  store i32 0, i32* %5, align 4
  br label %13

13:                                               ; preds = %50, %0
  %14 = load i32, i32* %5, align 4
  %15 = sext i32 %14 to i64
  %16 = getelementptr inbounds [1000 x i8], [1000 x i8]* %1, i64 0, i64 %15
  %17 = load i8, i8* %16, align 1
  %18 = sext i8 %17 to i32
  %19 = icmp ne i32 %18, 0
  br i1 %19, label %20, label %53

20:                                               ; preds = %13
  %21 = load i32, i32* %5, align 4
  %22 = sext i32 %21 to i64
  %23 = getelementptr inbounds [1000 x i8], [1000 x i8]* %1, i64 0, i64 %22
  %24 = load i8, i8* %23, align 1
  %25 = load i32, i32* %6, align 4
  %26 = sext i32 %25 to i64
  %27 = getelementptr inbounds [100 x [100 x i8]], [100 x [100 x i8]]* %2, i64 0, i64 %26
  %28 = load i32, i32* %7, align 4
  %29 = sext i32 %28 to i64
  %30 = getelementptr inbounds [100 x i8], [100 x i8]* %27, i64 0, i64 %29
  store i8 %24, i8* %30, align 1
  %31 = load i32, i32* %7, align 4
  %32 = add nsw i32 %31, 1
  store i32 %32, i32* %7, align 4
  %33 = load i32, i32* %5, align 4
  %34 = sext i32 %33 to i64
  %35 = getelementptr inbounds [1000 x i8], [1000 x i8]* %1, i64 0, i64 %34
  %36 = load i8, i8* %35, align 1
  %37 = sext i8 %36 to i32
  %38 = icmp eq i32 %37, 32
  br i1 %38, label %39, label %49

39:                                               ; preds = %20
  %40 = load i32, i32* %6, align 4
  %41 = sext i32 %40 to i64
  %42 = getelementptr inbounds [100 x [100 x i8]], [100 x [100 x i8]]* %2, i64 0, i64 %41
  %43 = load i32, i32* %7, align 4
  %44 = sub nsw i32 %43, 1
  %45 = sext i32 %44 to i64
  %46 = getelementptr inbounds [100 x i8], [100 x i8]* %42, i64 0, i64 %45
  store i8 0, i8* %46, align 1
  %47 = load i32, i32* %6, align 4
  %48 = add nsw i32 %47, 1
  store i32 %48, i32* %6, align 4
  store i32 0, i32* %7, align 4
  br label %49

49:                                               ; preds = %39, %20
  br label %50

50:                                               ; preds = %49
  %51 = load i32, i32* %5, align 4
  %52 = add nsw i32 %51, 1
  store i32 %52, i32* %5, align 4
  br label %13

53:                                               ; preds = %13
  %54 = getelementptr inbounds [100 x i8], [100 x i8]* %3, i64 0, i64 0
  %55 = getelementptr inbounds [100 x [100 x i8]], [100 x [100 x i8]]* %2, i64 0, i64 0
  %56 = getelementptr inbounds [100 x i8], [100 x i8]* %55, i64 0, i64 0
  %57 = call i8* @strcpy(i8* %54, i8* %56) #5
  %58 = getelementptr inbounds [100 x i8], [100 x i8]* %4, i64 0, i64 0
  %59 = getelementptr inbounds [100 x [100 x i8]], [100 x [100 x i8]]* %2, i64 0, i64 0
  %60 = getelementptr inbounds [100 x i8], [100 x i8]* %59, i64 0, i64 0
  %61 = call i8* @strcpy(i8* %58, i8* %60) #5
  store i32 0, i32* %5, align 4
  br label %62

62:                                               ; preds = %99, %53
  %63 = load i32, i32* %5, align 4
  %64 = load i32, i32* %6, align 4
  %65 = icmp sle i32 %63, %64
  br i1 %65, label %66, label %102

66:                                               ; preds = %62
  %67 = load i32, i32* %5, align 4
  %68 = sext i32 %67 to i64
  %69 = getelementptr inbounds [100 x [100 x i8]], [100 x [100 x i8]]* %2, i64 0, i64 %68
  %70 = getelementptr inbounds [100 x i8], [100 x i8]* %69, i64 0, i64 0
  %71 = call i64 @strlen(i8* %70) #6
  %72 = getelementptr inbounds [100 x i8], [100 x i8]* %3, i64 0, i64 0
  %73 = call i64 @strlen(i8* %72) #6
  %74 = icmp ugt i64 %71, %73
  br i1 %74, label %75, label %82

75:                                               ; preds = %66
  %76 = getelementptr inbounds [100 x i8], [100 x i8]* %3, i64 0, i64 0
  %77 = load i32, i32* %5, align 4
  %78 = sext i32 %77 to i64
  %79 = getelementptr inbounds [100 x [100 x i8]], [100 x [100 x i8]]* %2, i64 0, i64 %78
  %80 = getelementptr inbounds [100 x i8], [100 x i8]* %79, i64 0, i64 0
  %81 = call i8* @strcpy(i8* %76, i8* %80) #5
  br label %82

82:                                               ; preds = %75, %66
  %83 = load i32, i32* %5, align 4
  %84 = sext i32 %83 to i64
  %85 = getelementptr inbounds [100 x [100 x i8]], [100 x [100 x i8]]* %2, i64 0, i64 %84
  %86 = getelementptr inbounds [100 x i8], [100 x i8]* %85, i64 0, i64 0
  %87 = call i64 @strlen(i8* %86) #6
  %88 = getelementptr inbounds [100 x i8], [100 x i8]* %4, i64 0, i64 0
  %89 = call i64 @strlen(i8* %88) #6
  %90 = icmp ult i64 %87, %89
  br i1 %90, label %91, label %98

91:                                               ; preds = %82
  %92 = getelementptr inbounds [100 x i8], [100 x i8]* %4, i64 0, i64 0
  %93 = load i32, i32* %5, align 4
  %94 = sext i32 %93 to i64
  %95 = getelementptr inbounds [100 x [100 x i8]], [100 x [100 x i8]]* %2, i64 0, i64 %94
  %96 = getelementptr inbounds [100 x i8], [100 x i8]* %95, i64 0, i64 0
  %97 = call i8* @strcpy(i8* %92, i8* %96) #5
  br label %98

98:                                               ; preds = %91, %82
  br label %99

99:                                               ; preds = %98
  %100 = load i32, i32* %5, align 4
  %101 = add nsw i32 %100, 1
  store i32 %101, i32* %5, align 4
  br label %62

102:                                              ; preds = %62
  %103 = getelementptr inbounds [100 x i8], [100 x i8]* %3, i64 0, i64 0
  %104 = getelementptr inbounds [100 x i8], [100 x i8]* %4, i64 0, i64 0
  %105 = call i32 (i8*, ...) @printf(i8* getelementptr inbounds ([7 x i8], [7 x i8]* @.str, i64 0, i64 0), i8* %103, i8* %104)
  ret void
}

; Function Attrs: argmemonly nounwind willreturn
declare void @llvm.memset.p0i8.i64(i8* nocapture writeonly, i8, i64, i1 immarg) #1

declare dso_local i32 @gets(...) #2

; Function Attrs: nounwind
declare dso_local i8* @strcpy(i8*, i8*) #3

; Function Attrs: nounwind readonly
declare dso_local i64 @strlen(i8*) #4

declare dso_local i32 @printf(i8*, ...) #2


!llvm.module.flags = !{!0}
!llvm.ident = !{!1}

!0 = !{i32 1, !"wchar_size", i32 4}
!1 = !{!"clang version 10.0.0-4ubuntu1 "}
